target datalayout = "e-m:e-p270:32:32-p271:32:32-p272:64:64-i64:64-i128:128-f80:128-n8:16:32:64-S128"
target triple = "x86_64-unknown-linux-gnu"

%"class.icu_75::UVector" = type { %"class.icu_75::UObject", i32, i32, ptr, ptr, ptr }
%"class.icu_75::UObject" = type { ptr }
%union.UElement = type { ptr }

; Function Attrs: mustprogress uwtable
define noundef zeroext i1 @_ZNK6icu_757UVectoreqERKS0_(ptr noundef nonnull align 8 dereferenceable(40) %this, ptr noundef nonnull align 8 dereferenceable(40) %other) #1 align 2 {
entry:
  %retval = alloca i1, align 1
  %this.addr = alloca ptr, align 8
  %other.addr = alloca ptr, align 8
  %i = alloca i32, align 4
  %agg.tmp = alloca %union.UElement, align 8
  %agg.tmp8 = alloca %union.UElement, align 8
  store ptr %this, ptr %this.addr, align 8
  store ptr %other, ptr %other.addr, align 8
  %this1 = load ptr, ptr %this.addr, align 8
  %count = getelementptr inbounds %"class.icu_75::UVector", ptr %this1, i32 0, i32 1
  %0 = load i32, ptr %count, align 8
  %1 = load ptr, ptr %other.addr, align 8
  %count2 = getelementptr inbounds %"class.icu_75::UVector", ptr %1, i32 0, i32 1
  %2 = load i32, ptr %count2, align 8
  %cmp = icmp ne i32 %0, %2
  br i1 %cmp, label %if.then, label %if.end

if.then:                                          ; preds = %entry
  store i1 false, ptr %retval, align 1
  br label %return

if.end:                                           ; preds = %entry
  %comparer = getelementptr inbounds %"class.icu_75::UVector", ptr %this1, i32 0, i32 5
  %3 = load ptr, ptr %comparer, align 8
  %cmp3 = icmp ne ptr %3, null
  br i1 %cmp3, label %if.then4, label %if.end15

if.then4:                                         ; preds = %if.end
  store i32 0, ptr %i, align 4
  br label %for.cond

for.cond:                                         ; preds = %for.inc, %if.then4
  %4 = load i32, ptr %i, align 4
  %count5 = getelementptr inbounds %"class.icu_75::UVector", ptr %this1, i32 0, i32 1
  %5 = load i32, ptr %count5, align 8
  %cmp6 = icmp slt i32 %4, %5
  br i1 %cmp6, label %for.body, label %for.end

for.body:                                         ; preds = %for.cond
  %comparer7 = getelementptr inbounds %"class.icu_75::UVector", ptr %this1, i32 0, i32 5
  %6 = load ptr, ptr %comparer7, align 8
  %elements = getelementptr inbounds %"class.icu_75::UVector", ptr %this1, i32 0, i32 3
  %7 = load ptr, ptr %elements, align 8
  %8 = load i32, ptr %i, align 4
  %idxprom = sext i32 %8 to i64
  %arrayidx = getelementptr inbounds %union.UElement, ptr %7, i64 %idxprom
  call void @llvm.memcpy.p0.p0.i64(ptr align 8 %agg.tmp, ptr align 8 %arrayidx, i64 8, i1 false)
  %9 = load ptr, ptr %other.addr, align 8
  %elements9 = getelementptr inbounds %"class.icu_75::UVector", ptr %9, i32 0, i32 3
  %10 = load ptr, ptr %elements9, align 8
  %11 = load i32, ptr %i, align 4
  %idxprom10 = sext i32 %11 to i64
  %arrayidx11 = getelementptr inbounds %union.UElement, ptr %10, i64 %idxprom10
  call void @llvm.memcpy.p0.p0.i64(ptr align 8 %agg.tmp8, ptr align 8 %arrayidx11, i64 8, i1 false)
  %coerce.dive = getelementptr inbounds %union.UElement, ptr %agg.tmp, i32 0, i32 0
  %12 = load ptr, ptr %coerce.dive, align 8
  %coerce.dive12 = getelementptr inbounds %union.UElement, ptr %agg.tmp8, i32 0, i32 0
  %13 = load ptr, ptr %coerce.dive12, align 8
  %call = call noundef signext i8 %6(ptr %12, ptr %13)
  %tobool = icmp ne i8 %call, 0
  br i1 %tobool, label %if.end14, label %if.then13

if.then13:                                        ; preds = %for.body
  store i1 false, ptr %retval, align 1
  br label %return

if.end14:                                         ; preds = %for.body
  br label %for.inc

for.inc:                                          ; preds = %if.end14
  %14 = load i32, ptr %i, align 4
  %inc = add nsw i32 %14, 1
  store i32 %inc, ptr %i, align 4
  br label %for.cond, !llvm.loop !9

for.end:                                          ; preds = %for.cond
  br label %if.end15

if.end15:                                         ; preds = %for.end, %if.end
  store i1 true, ptr %retval, align 1
  br label %return

return:                                           ; preds = %if.end15, %if.then13, %if.then
  %15 = load i1, ptr %retval, align 1
  ret i1 %15
}