; Function Attrs: mustprogress uwtable
define noundef zeroext i1 @_ZNK6icu_757UVectoreqERKS0_(ptr nocapture noundef nonnull readonly align 8 dereferenceable(40) %this, ptr nocapture noundef nonnull readonly align 8 dereferenceable(40) %other) local_unnamed_addr #1 align 2 {
entry:
  %count = getelementptr inbounds i8, ptr %this, i64 8
  %0 = load i32, ptr %count, align 8
  %count2 = getelementptr inbounds i8, ptr %other, i64 8
  %1 = load i32, ptr %count2, align 8
  %cmp.not = icmp eq i32 %0, %1
  br i1 %cmp.not, label %if.end, label %return

if.end:                                           ; preds = %entry
  %comparer = getelementptr inbounds i8, ptr %this, i64 32
  %2 = load ptr, ptr %comparer, align 8
  %cmp3.not = icmp ne ptr %2, null
  %cmp65 = icmp sgt i32 %0, 0
  %or.cond = and i1 %cmp3.not, %cmp65
  br i1 %or.cond, label %for.body.lr.ph, label %return

for.body.lr.ph:                                   ; preds = %if.end
  %elements = getelementptr inbounds i8, ptr %this, i64 16
  %elements9 = getelementptr inbounds i8, ptr %other, i64 16
  br label %for.body

for.cond:                                         ; preds = %for.body
  %indvars.iv.next = add nuw nsw i64 %indvars.iv, 1
  %3 = load i32, ptr %count, align 8
  %4 = sext i32 %3 to i64
  %cmp6 = icmp slt i64 %indvars.iv.next, %4
  br i1 %cmp6, label %for.body, label %return, !llvm.loop !10

for.body:                                         ; preds = %for.body.lr.ph, %for.cond
  %indvars.iv = phi i64 [ 0, %for.body.lr.ph ], [ %indvars.iv.next, %for.cond ]
  %5 = load ptr, ptr %comparer, align 8
  %6 = load ptr, ptr %elements, align 8
  %arrayidx = getelementptr inbounds %union.UElement, ptr %6, i64 %indvars.iv
  %agg.tmp.sroa.0.0.copyload = load ptr, ptr %arrayidx, align 8
  %7 = load ptr, ptr %elements9, align 8
  %arrayidx11 = getelementptr inbounds %union.UElement, ptr %7, i64 %indvars.iv
  %agg.tmp8.sroa.0.0.copyload = load ptr, ptr %arrayidx11, align 8
  %call = tail call noundef signext i8 %5(ptr %agg.tmp.sroa.0.0.copyload, ptr %agg.tmp8.sroa.0.0.copyload)
  %tobool.not.not = icmp ne i8 %call, 0
  br i1 %tobool.not.not, label %for.cond, label %return

return:                                           ; preds = %for.body, %for.cond, %if.end, %entry
  %retval.0 = phi i1 [ false, %entry ], [ true, %if.end ], [ %tobool.not.not, %for.cond ], [ %tobool.not.not, %for.body ]
  ret i1 %retval.0
}